; Function Attrs: mustprogress uwtable
define hidden noundef zeroext i1 @_ZN8intblast6solver10post_visitEP4exprbb(ptr noundef nonnull align 8 dereferenceable(420) %0, ptr noundef %1, i1 zeroext %2, i1 zeroext %3) unnamed_addr #3 align 2 {
  %5 = tail call noundef ptr @_ZNK3euf13th_euf_solver10expr2enodeEP4expr(ptr noundef nonnull align 8 dereferenceable(108) %0, ptr noundef %1)
  %6 = load ptr, ptr %0, align 8, !tbaa !10
  %7 = getelementptr inbounds nuw i8, ptr %6, i64 560
  %8 = load ptr, ptr %7, align 8
  %9 = tail call noundef zeroext i1 %8(ptr noundef nonnull align 8 dereferenceable(420) %0, ptr noundef %1)
  br i1 %9, label %19, label %10

10:                                               ; preds = %4
  %.not = icmp eq ptr %5, null
  br i1 %.not, label %11, label %13

11:                                               ; preds = %10
  %12 = tail call noundef ptr @_ZN3euf13th_euf_solver8mk_enodeEP4exprb(ptr noundef nonnull align 8 dereferenceable(108) %0, ptr noundef %1, i1 noundef zeroext false)
  br label %13

13:                                               ; preds = %11, %10
  %.09 = phi ptr [ %5, %10 ], [ %12, %11 ]
  %14 = load ptr, ptr %0, align 8, !tbaa !10
  %15 = getelementptr inbounds nuw i8, ptr %14, i64 528
  %16 = load ptr, ptr %15, align 8
  %17 = tail call noundef i32 %16(ptr noundef nonnull align 8 dereferenceable(420) %0, ptr noundef %.09)
  %18 = getelementptr inbounds nuw i8, ptr %0, i64 192
  tail call void @_ZN17bv2int_translator14internalize_bvEP3app(ptr noundef nonnull align 8 dereferenceable(177) %18, ptr noundef %1)
  br label %19

19:                                               ; preds = %4, %13
  ret i1 true
}